(imatplotlib.font_manager
FontManager
p1
(dp2
S'afm_lookup_cache'
p3
(dp4
sS'ttflist'
p5
(lp6
ccopy_reg
_reconstructor
p7
(cmatplotlib.font_manager
FontEntry
p8
c__builtin__
object
p9
NtRp10
(dp11
S'style'
p12
S'normal'
p13
sS'name'
p14
S'cmb10'
p15
sS'weight'
p16
I400
sS'stretch'
p17
g13
sS'variant'
p18
g13
sS'fname'
p19
S'/usr/share/matplotlib/mpl-data/fonts/ttf/cmb10.ttf'
p20
sS'size'
p21
S'scalable'
p22
sbag7
(g8
g9
NtRp23
(dp24
g12
g13
sg14
S'cmex10'
p25
sg16
I400
sg17
g13
sg18
g13
sg19
S'/usr/share/matplotlib/mpl-data/fonts/ttf/cmex10.ttf'
p26
sg21
g22
sbag7
(g8
g9
NtRp27
(dp28
g12
S'italic'
p29
sg14
S'STIXNonUnicode'
p30
sg16
I400
sg17
g13
sg18
g13
sg19
S'/usr/share/matplotlib/mpl-data/fonts/ttf/STIXNonUniIta.ttf'
p31
sg21
g22
sbag7
(g8
g9
NtRp32
(dp33
g12
g13
sg14
S'STIXSizeOneSym'
p34
sg16
I400
sg17
g13
sg18
g13
sg19
S'/usr/share/matplotlib/mpl-data/fonts/ttf/STIXSizOneSymReg.ttf'
p35
sg21
g22
sbag7
(g8
g9
NtRp36
(dp37
g12
g13
sg14
S'STIXSizeThreeSym'
p38
sg16
I400
sg17
g13
sg18
g13
sg19
S'/usr/share/matplotlib/mpl-data/fonts/ttf/STIXSizThreeSymReg.ttf'
p39
sg21
g22
sbag7
(g8
g9
NtRp40
(dp41
g12
g13
sg14
S'STIXSizeTwoSym'
p42
sg16
I700
sg17
g13
sg18
g13
sg19
S'/usr/share/matplotlib/mpl-data/fonts/ttf/STIXSizTwoSymBol.ttf'
p43
sg21
g22
sbag7
(g8
g9
NtRp44
(dp45
g12
g13
sg14
S'cmtt10'
p46
sg16
I400
sg17
g13
sg18
g13
sg19
S'/usr/share/matplotlib/mpl-data/fonts/ttf/cmtt10.ttf'
p47
sg21
g22
sbag7
(g8
g9
NtRp48
(dp49
g12
g13
sg14
S'STIXGeneral'
p50
sg16
I400
sg17
g13
sg18
g13
sg19
S'/usr/share/matplotlib/mpl-data/fonts/ttf/STIXGeneral.ttf'
p51
sg21
g22
sbag7
(g8
g9
NtRp52
(dp53
g12
g29
sg14
S'STIXNonUnicode'
p54
sg16
I700
sg17
g13
sg18
g13
sg19
S'/usr/share/matplotlib/mpl-data/fonts/ttf/STIXNonUniBolIta.ttf'
p55
sg21
g22
sbag7
(g8
g9
NtRp56
(dp57
g12
g13
sg14
S'STIXSizeFiveSym'
p58
sg16
I400
sg17
g13
sg18
g13
sg19
S'/usr/share/matplotlib/mpl-data/fonts/ttf/STIXSizFiveSymReg.ttf'
p59
sg21
g22
sbag7
(g8
g9
NtRp60
(dp61
g12
g13
sg14
S'STIXSizeOneSym'
p62
sg16
I700
sg17
g13
sg18
g13
sg19
S'/usr/share/matplotlib/mpl-data/fonts/ttf/STIXSizOneSymBol.ttf'
p63
sg21
g22
sbag7
(g8
g9
NtRp64
(dp65
g12
g13
sg14
S'STIXGeneral'
p66
sg16
I700
sg17
g13
sg18
g13
sg19
S'/usr/share/matplotlib/mpl-data/fonts/ttf/STIXGeneralBol.ttf'
p67
sg21
g22
sbag7
(g8
g9
NtRp68
(dp69
g12
g13
sg14
S'cmr10'
p70
sg16
I400
sg17
g13
sg18
g13
sg19
S'/usr/share/matplotlib/mpl-data/fonts/ttf/cmr10.ttf'
p71
sg21
g22
sbag7
(g8
g9
NtRp72
(dp73
g12
g13
sg14
S'STIXSizeTwoSym'
p74
sg16
I400
sg17
g13
sg18
g13
sg19
S'/usr/share/matplotlib/mpl-data/fonts/ttf/STIXSizTwoSymReg.ttf'
p75
sg21
g22
sbag7
(g8
g9
NtRp76
(dp77
g12
g13
sg14
S'STIXNonUnicode'
p78
sg16
I400
sg17
g13
sg18
g13
sg19
S'/usr/share/matplotlib/mpl-data/fonts/ttf/STIXNonUni.ttf'
p79
sg21
g22
sbag7
(g8
g9
NtRp80
(dp81
g12
g13
sg14
S'cmsy10'
p82
sg16
I400
sg17
g13
sg18
g13
sg19
S'/usr/share/matplotlib/mpl-data/fonts/ttf/cmsy10.ttf'
p83
sg21
g22
sbag7
(g8
g9
NtRp84
(dp85
g12
g13
sg14
S'STIXSizeThreeSym'
p86
sg16
I700
sg17
g13
sg18
g13
sg19
S'/usr/share/matplotlib/mpl-data/fonts/ttf/STIXSizThreeSymBol.ttf'
p87
sg21
g22
sbag7
(g8
g9
NtRp88
(dp89
g12
g13
sg14
S'cmss10'
p90
sg16
I400
sg17
g13
sg18
g13
sg19
S'/usr/share/matplotlib/mpl-data/fonts/ttf/cmss10.ttf'
p91
sg21
g22
sbag7
(g8
g9
NtRp92
(dp93
g12
g13
sg14
S'STIXSizeFourSym'
p94
sg16
I700
sg17
g13
sg18
g13
sg19
S'/usr/share/matplotlib/mpl-data/fonts/ttf/STIXSizFourSymBol.ttf'
p95
sg21
g22
sbag7
(g8
g9
NtRp96
(dp97
g12
g29
sg14
S'STIXGeneral'
p98
sg16
I400
sg17
g13
sg18
g13
sg19
S'/usr/share/matplotlib/mpl-data/fonts/ttf/STIXGeneralItalic.ttf'
p99
sg21
g22
sbag7
(g8
g9
NtRp100
(dp101
g12
g13
sg14
S'cmmi10'
p102
sg16
I400
sg17
g13
sg18
g13
sg19
S'/usr/share/matplotlib/mpl-data/fonts/ttf/cmmi10.ttf'
p103
sg21
g22
sbag7
(g8
g9
NtRp104
(dp105
g12
g13
sg14
S'STIXNonUnicode'
p106
sg16
I700
sg17
g13
sg18
g13
sg19
S'/usr/share/matplotlib/mpl-data/fonts/ttf/STIXNonUniBol.ttf'
p107
sg21
g22
sbag7
(g8
g9
NtRp108
(dp109
g12
g29
sg14
S'STIXGeneral'
p110
sg16
I700
sg17
g13
sg18
g13
sg19
S'/usr/share/matplotlib/mpl-data/fonts/ttf/STIXGeneralBolIta.ttf'
p111
sg21
g22
sbag7
(g8
g9
NtRp112
(dp113
g12
g13
sg14
S'STIXSizeFourSym'
p114
sg16
I400
sg17
g13
sg18
g13
sg19
S'/usr/share/matplotlib/mpl-data/fonts/ttf/STIXSizFourSymReg.ttf'
p115
sg21
g22
sbag7
(g8
g9
NtRp116
(dp117
g12
g13
sg14
S'Liberation Sans Narrow'
p118
sg16
I400
sg17
S'condensed'
p119
sg18
g13
sg19
S'/usr/share/fonts/truetype/ttf-liberation/LiberationSansNarrow-Regular.ttf'
p120
sg21
g22
sbag7
(g8
g9
NtRp121
(dp122
g12
S'oblique'
p123
sg14
S'Purisa'
p124
sg16
I700
sg17
g13
sg18
g13
sg19
S'/usr/share/fonts/truetype/thai/Purisa-BoldOblique.ttf'
p125
sg21
g22
sbag7
(g8
g9
NtRp126
(dp127
g12
g13
sg14
S'Mallige'
p128
sg16
I700
sg17
g13
sg18
g13
sg19
S'/usr/share/fonts/truetype/ttf-indic-fonts-core/Malige-b.ttf'
p129
sg21
g22
sbag7
(g8
g9
NtRp130
(dp131
g12
g123
sg14
S'Kinnari'
p132
sg16
I700
sg17
g13
sg18
g13
sg19
S'/usr/share/fonts/truetype/thai/Kinnari-BoldOblique.ttf'
p133
sg21
g22
sbag7
(g8
g9
NtRp134
(dp135
g12
g123
sg14
S'Tlwg Typo'
p136
sg16
I400
sg17
g13
sg18
g13
sg19
S'/usr/share/fonts/truetype/thai/TlwgTypo-Oblique.ttf'
p137
sg21
g22
sbag7
(g8
g9
NtRp138
(dp139
g12
g123
sg14
S'Tlwg Typo'
p140
sg16
I700
sg17
g13
sg18
g13
sg19
S'/usr/share/fonts/truetype/thai/TlwgTypo-BoldOblique.ttf'
p141
sg21
g22
sbag7
(g8
g9
NtRp142
(dp143
g12
g13
sg14
S'Umpush'
p144
sg16
I400
sg17
g13
sg18
g13
sg19
S'/usr/share/fonts/truetype/thai/Umpush.ttf'
p145
sg21
g22
sbag7
(g8
g9
NtRp146
(dp147
g12
g29
sg14
S'Liberation Sans'
p148
sg16
I400
sg17
g13
sg18
g13
sg19
S'/usr/share/fonts/truetype/ttf-liberation/LiberationSans-Italic.ttf'
p149
sg21
g22
sbag7
(g8
g9
NtRp150
(dp151
g12
g123
sg14
S'Loma'
p152
sg16
I700
sg17
g13
sg18
g13
sg19
S'/usr/share/fonts/truetype/thai/Loma-BoldOblique.ttf'
p153
sg21
g22
sbag7
(g8
g9
NtRp154
(dp155
g12
g13
sg14
S'FreeSans'
p156
sg16
I400
sg17
g13
sg18
g13
sg19
S'/usr/share/fonts/truetype/freefont/FreeSans.ttf'
p157
sg21
g22
sbag7
(g8
g9
NtRp158
(dp159
g12
g13
sg14
S'UnBatang'
p160
sg16
I700
sg17
g13
sg18
g13
sg19
S'/usr/share/fonts/truetype/unfonts/UnBatangBold.ttf'
p161
sg21
g22
sbag7
(g8
g9
NtRp162
(dp163
g12
g13
sg14
S'FreeSerif'
p164
sg16
I400
sg17
g13
sg18
g13
sg19
S'/usr/share/fonts/truetype/freefont/FreeSerif.ttf'
p165
sg21
g22
sbag7
(g8
g9
NtRp166
(dp167
g12
g29
sg14
S'rsfs10'
p168
sg16
I400
sg17
g13
sg18
g13
sg19
S'/usr/share/fonts/truetype/ttf-lyx/rsfs10.ttf'
p169
sg21
g22
sbag7
(g8
g9
NtRp170
(dp171
g12
g13
sg14
S'DejaVu Sans'
p172
sg16
I400
sg17
g119
sg18
g13
sg19
S'/usr/share/fonts/truetype/ttf-dejavu/DejaVuSansCondensed.ttf'
p173
sg21
g22
sbag7
(g8
g9
NtRp174
(dp175
g12
g13
sg14
S'Liberation Mono'
p176
sg16
I700
sg17
g13
sg18
g13
sg19
S'/usr/share/fonts/truetype/ttf-liberation/LiberationMono-Bold.ttf'
p177
sg21
g22
sbag7
(g8
g9
NtRp178
(dp179
g12
g123
sg14
S'TlwgTypewriter'
p180
sg16
I400
sg17
g13
sg18
g13
sg19
S'/usr/share/fonts/truetype/thai/TlwgTypewriter-Oblique.ttf'
p181
sg21
g22
sbag7
(g8
g9
NtRp182
(dp183
g12
g13
sg14
S'DejaVu Sans Mono'
p184
sg16
I400
sg17
g13
sg18
g13
sg19
S'/usr/share/fonts/truetype/ttf-dejavu/DejaVuSansMono.ttf'
p185
sg21
g22
sbag7
(g8
g9
NtRp186
(dp187
g12
g13
sg14
S'Lohit Punjabi'
p188
sg16
I400
sg17
g13
sg18
g13
sg19
S'/usr/share/fonts/truetype/ttf-punjabi-fonts/lohit_pa.ttf'
p189
sg21
g22
sbag7
(g8
g9
NtRp190
(dp191
g12
g123
sg14
S'TlwgMono'
p192
sg16
I400
sg17
g13
sg18
g13
sg19
S'/usr/share/fonts/truetype/thai/TlwgMono-Oblique.ttf'
p193
sg21
g22
sbag7
(g8
g9
NtRp194
(dp195
g12
g13
sg14
S'Meera'
p196
sg16
I400
sg17
g13
sg18
g13
sg19
S'/usr/share/fonts/truetype/ttf-indic-fonts-core/Meera_04.ttf'
p197
sg21
g22
sbag7
(g8
g9
NtRp198
(dp199
g12
g13
sg14
S'TlwgMono'
p200
sg16
I400
sg17
g13
sg18
g13
sg19
S'/usr/share/fonts/truetype/thai/TlwgMono.ttf'
p201
sg21
g22
sbag7
(g8
g9
NtRp202
(dp203
g12
g29
sg14
S'Ubuntu'
p204
sg16
I400
sg17
g13
sg18
g13
sg19
S'/usr/share/fonts/truetype/ubuntu-font-family/Ubuntu-RI.ttf'
p205
sg21
g22
sbag7
(g8
g9
NtRp206
(dp207
g12
g13
sg14
S'FreeSerif'
p208
sg16
I700
sg17
g13
sg18
g13
sg19
S'/usr/share/fonts/truetype/freefont/FreeSerifBold.ttf'
p209
sg21
g22
sbag7
(g8
g9
NtRp210
(dp211
g12
g123
sg14
S'Umpush'
p212
sg16
I700
sg17
g13
sg18
g13
sg19
S'/usr/share/fonts/truetype/thai/Umpush-BoldOblique.ttf'
p213
sg21
g22
sbag7
(g8
g9
NtRp214
(dp215
g12
g29
sg14
S'Liberation Mono'
p216
sg16
I400
sg17
g13
sg18
g13
sg19
S'/usr/share/fonts/truetype/ttf-liberation/LiberationMono-Italic.ttf'
p217
sg21
g22
sbag7
(g8
g9
NtRp218
(dp219
g12
g13
sg14
S'Rachana'
p220
sg16
I400
sg17
g13
sg18
g13
sg19
S'/usr/share/fonts/truetype/ttf-indic-fonts-core/Rachana_04.ttf'
p221
sg21
g22
sbag7
(g8
g9
NtRp222
(dp223
g12
g29
sg14
S'DejaVu Serif'
p224
sg16
I400
sg17
g13
sg18
g13
sg19
S'/usr/share/fonts/truetype/ttf-dejavu/DejaVuSerif-Italic.ttf'
p225
sg21
g22
sbag7
(g8
g9
NtRp226
(dp227
g12
g123
sg14
S'FreeSans'
p228
sg16
I400
sg17
g13
sg18
g13
sg19
S'/usr/share/fonts/truetype/freefont/FreeSansOblique.ttf'
p229
sg21
g22
sbag7
(g8
g9
NtRp230
(dp231
g12
g13
sg14
S'Ubuntu Mono'
p232
sg16
I400
sg17
g13
sg18
g13
sg19
S'/usr/share/fonts/truetype/ubuntu-font-family/UbuntuMono-R.ttf'
p233
sg21
g22
sbag7
(g8
g9
NtRp234
(dp235
g12
g13
sg14
S'TlwgMono'
p236
sg16
I700
sg17
g13
sg18
g13
sg19
S'/usr/share/fonts/truetype/thai/TlwgMono-Bold.ttf'
p237
sg21
g22
sbag7
(g8
g9
NtRp238
(dp239
g12
g13
sg14
S'Lohit Hindi'
p240
sg16
I400
sg17
g13
sg18
g13
sg19
S'/usr/share/fonts/truetype/ttf-indic-fonts-core/lohit_hi.ttf'
p241
sg21
g22
sbag7
(g8
g9
NtRp242
(dp243
g12
g123
sg14
S'DejaVu Sans'
p244
sg16
I400
sg17
g13
sg18
g13
sg19
S'/usr/share/fonts/truetype/ttf-dejavu/DejaVuSans-Oblique.ttf'
p245
sg21
g22
sbag7
(g8
g9
NtRp246
(dp247
g12
g13
sg14
S'UnDotum'
p248
sg16
I700
sg17
g13
sg18
g13
sg19
S'/usr/share/fonts/truetype/unfonts/UnDotumBold.ttf'
p249
sg21
g22
sbag7
(g8
g9
NtRp250
(dp251
g12
g13
sg14
S'Norasi'
p252
sg16
I400
sg17
g13
sg18
g13
sg19
S'/usr/share/fonts/truetype/thai/Norasi.ttf'
p253
sg21
g22
sbag7
(g8
g9
NtRp254
(dp255
g12
g13
sg14
S'Ubuntu'
p256
sg16
I400
sg17
g13
sg18
g13
sg19
S'/usr/share/fonts/truetype/ubuntu-font-family/Ubuntu-R.ttf'
p257
sg21
g22
sbag7
(g8
g9
NtRp258
(dp259
g12
g13
sg14
S'eufm10'
p260
sg16
I400
sg17
g13
sg18
g13
sg19
S'/usr/share/fonts/truetype/ttf-lyx/eufm10.ttf'
p261
sg21
g22
sbag7
(g8
g9
NtRp262
(dp263
g12
g123
sg14
S'DejaVu Sans'
p264
sg16
I700
sg17
g13
sg18
g13
sg19
S'/usr/share/fonts/truetype/ttf-dejavu/DejaVuSans-BoldOblique.ttf'
p265
sg21
g22
sbag7
(g8
g9
NtRp266
(dp267
g12
g29
sg14
S'Liberation Sans Narrow'
p268
sg16
I400
sg17
g119
sg18
g13
sg19
S'/usr/share/fonts/truetype/ttf-liberation/LiberationSansNarrow-Italic.ttf'
p269
sg21
g22
sbag7
(g8
g9
NtRp270
(dp271
g12
g13
sg14
S'wasy10'
p272
sg16
I400
sg17
g13
sg18
g13
sg19
S'/usr/share/fonts/truetype/ttf-lyx/wasy10.ttf'
p273
sg21
g22
sbag7
(g8
g9
NtRp274
(dp275
g12
g123
sg14
S'DejaVu Sans'
p276
sg16
I700
sg17
g119
sg18
g13
sg19
S'/usr/share/fonts/truetype/ttf-dejavu/DejaVuSansCondensed-BoldOblique.ttf'
p277
sg21
g22
sbag7
(g8
g9
NtRp278
(dp279
g12
g13
sg14
S'DejaVu Sans'
p280
sg16
I700
sg17
g119
sg18
g13
sg19
S'/usr/share/fonts/truetype/ttf-dejavu/DejaVuSansCondensed-Bold.ttf'
p281
sg21
g22
sbag7
(g8
g9
NtRp282
(dp283
g12
g13
sg14
S'Sawasdee'
p284
sg16
I700
sg17
g13
sg18
g13
sg19
S'/usr/share/fonts/truetype/thai/Sawasdee-Bold.ttf'
p285
sg21
g22
sbag7
(g8
g9
NtRp286
(dp287
g12
g13
sg14
S'msbm10'
p288
sg16
I400
sg17
g13
sg18
g13
sg19
S'/usr/share/fonts/truetype/ttf-lyx/msbm10.ttf'
p289
sg21
g22
sbag7
(g8
g9
NtRp290
(dp291
g12
g13
sg14
S'Waree'
p292
sg16
I400
sg17
g13
sg18
g13
sg19
S'/usr/share/fonts/truetype/thai/Waree.ttf'
p293
sg21
g22
sbag7
(g8
g9
NtRp294
(dp295
g12
g13
sg14
S'DejaVu Sans Mono'
p296
sg16
I700
sg17
g13
sg18
g13
sg19
S'/usr/share/fonts/truetype/ttf-dejavu/DejaVuSansMono-Bold.ttf'
p297
sg21
g22
sbag7
(g8
g9
NtRp298
(dp299
g12
g123
sg14
S'Sawasdee'
p300
sg16
I700
sg17
g13
sg18
g13
sg19
S'/usr/share/fonts/truetype/thai/Sawasdee-BoldOblique.ttf'
p301
sg21
g22
sbag7
(g8
g9
NtRp302
(dp303
g12
g13
sg14
S'Pothana2000'
p304
sg16
I400
sg17
g13
sg18
g13
sg19
S'/usr/share/fonts/truetype/ttf-indic-fonts-core/Pothana2000.ttf'
p305
sg21
g22
sbag7
(g8
g9
NtRp306
(dp307
g12
g123
sg14
S'Waree'
p308
sg16
I700
sg17
g13
sg18
g13
sg19
S'/usr/share/fonts/truetype/thai/Waree-BoldOblique.ttf'
p309
sg21
g22
sbag7
(g8
g9
NtRp310
(dp311
g12
g13
sg14
S'TlwgTypewriter'
p312
sg16
I400
sg17
g13
sg18
g13
sg19
S'/usr/share/fonts/truetype/thai/TlwgTypewriter.ttf'
p313
sg21
g22
sbag7
(g8
g9
NtRp314
(dp315
g12
g123
sg14
S'DejaVu Sans'
p316
sg16
I400
sg17
g119
sg18
g13
sg19
S'/usr/share/fonts/truetype/ttf-dejavu/DejaVuSansCondensed-Oblique.ttf'
p317
sg21
g22
sbag7
(g8
g9
NtRp318
(dp319
g12
g13
sg14
S'ori1Uni'
p320
sg16
I500
sg17
g13
sg18
g13
sg19
S'/usr/share/fonts/truetype/ttf-indic-fonts-core/utkal.ttf'
p321
sg21
g22
sbag7
(g8
g9
NtRp322
(dp323
g12
g29
sg14
S'Liberation Serif'
p324
sg16
I400
sg17
g13
sg18
g13
sg19
S'/usr/share/fonts/truetype/ttf-liberation/LiberationSerif-Italic.ttf'
p325
sg21
g22
sbag7
(g8
g9
NtRp326
(dp327
g12
g29
sg14
S'DejaVu Serif'
p328
sg16
I700
sg17
g13
sg18
g13
sg19
S'/usr/share/fonts/truetype/ttf-dejavu/DejaVuSerif-BoldItalic.ttf'
p329
sg21
g22
sbag7
(g8
g9
NtRp330
(dp331
g12
g123
sg14
S'TlwgMono'
p332
sg16
I700
sg17
g13
sg18
g13
sg19
S'/usr/share/fonts/truetype/thai/TlwgMono-BoldOblique.ttf'
p333
sg21
g22
sbag7
(g8
g9
NtRp334
(dp335
g12
g123
sg14
S'Tlwg Typist'
p336
sg16
I400
sg17
g13
sg18
g13
sg19
S'/usr/share/fonts/truetype/thai/TlwgTypist-Oblique.ttf'
p337
sg21
g22
sbag7
(g8
g9
NtRp338
(dp339
g12
g29
sg14
S'Liberation Sans Narrow'
p340
sg16
I700
sg17
g119
sg18
g13
sg19
S'/usr/share/fonts/truetype/ttf-liberation/LiberationSansNarrow-BoldItalic.ttf'
p341
sg21
g22
sbag7
(g8
g9
NtRp342
(dp343
g12
g13
sg14
S'Kedage'
p344
sg16
I700
sg17
g13
sg18
g13
sg19
S'/usr/share/fonts/truetype/ttf-indic-fonts-core/Kedage-b.ttf'
p345
sg21
g22
sbag7
(g8
g9
NtRp346
(dp347
g12
g13
sg14
S'DejaVu Serif'
p348
sg16
I700
sg17
g13
sg18
g13
sg19
S'/usr/share/fonts/truetype/ttf-dejavu/DejaVuSerif-Bold.ttf'
p349
sg21
g22
sbag7
(g8
g9
NtRp350
(dp351
g12
g13
sg14
S'KacstOne'
p352
sg16
I400
sg17
g13
sg18
g13
sg19
S'/usr/share/fonts/truetype/ttf-kacst-one/KacstOne.ttf'
p353
sg21
g22
sbag7
(g8
g9
NtRp354
(dp355
g12
g13
sg14
S'Liberation Serif'
p356
sg16
I700
sg17
g13
sg18
g13
sg19
S'/usr/share/fonts/truetype/ttf-liberation/LiberationSerif-Bold.ttf'
p357
sg21
g22
sbag7
(g8
g9
NtRp358
(dp359
g12
g13
sg14
S'Tlwg Typist'
p360
sg16
I700
sg17
g13
sg18
g13
sg19
S'/usr/share/fonts/truetype/thai/TlwgTypist-Bold.ttf'
p361
sg21
g22
sbag7
(g8
g9
NtRp362
(dp363
g12
g29
sg14
S'Liberation Mono'
p364
sg16
I700
sg17
g13
sg18
g13
sg19
S'/usr/share/fonts/truetype/ttf-liberation/LiberationMono-BoldItalic.ttf'
p365
sg21
g22
sbag7
(g8
g9
NtRp366
(dp367
g12
g29
sg14
S'Liberation Sans'
p368
sg16
I700
sg17
g13
sg18
g13
sg19
S'/usr/share/fonts/truetype/ttf-liberation/LiberationSans-BoldItalic.ttf'
p369
sg21
g22
sbag7
(g8
g9
NtRp370
(dp371
g12
g13
sg14
S'Mallige'
p372
sg16
I400
sg17
g13
sg18
g13
sg19
S'/usr/share/fonts/truetype/ttf-indic-fonts-core/Malige-n.ttf'
p373
sg21
g22
sbag7
(g8
g9
NtRp374
(dp375
g12
g29
sg14
S'DejaVu Serif'
p376
sg16
I700
sg17
g119
sg18
g13
sg19
S'/usr/share/fonts/truetype/ttf-dejavu/DejaVuSerifCondensed-BoldItalic.ttf'
p377
sg21
g22
sbag7
(g8
g9
NtRp378
(dp379
g12
g13
sg14
S'FreeSans'
p380
sg16
I700
sg17
g13
sg18
g13
sg19
S'/usr/share/fonts/truetype/freefont/FreeSansBold.ttf'
p381
sg21
g22
sbag7
(g8
g9
NtRp382
(dp383
g12
g13
sg14
S'Loma'
p384
sg16
I700
sg17
g13
sg18
g13
sg19
S'/usr/share/fonts/truetype/thai/Loma-Bold.ttf'
p385
sg21
g22
sbag7
(g8
g9
NtRp386
(dp387
g12
g13
sg14
S'Lohit Bengali'
p388
sg16
I400
sg17
g13
sg18
g13
sg19
S'/usr/share/fonts/truetype/ttf-indic-fonts-core/lohit_bn.ttf'
p389
sg21
g22
sbag7
(g8
g9
NtRp390
(dp391
g12
g13
sg14
S'Sawasdee'
p392
sg16
I400
sg17
g13
sg18
g13
sg19
S'/usr/share/fonts/truetype/thai/Sawasdee.ttf'
p393
sg21
g22
sbag7
(g8
g9
NtRp394
(dp395
g12
g123
sg14
S'DejaVu Sans Mono'
p396
sg16
I700
sg17
g13
sg18
g13
sg19
S'/usr/share/fonts/truetype/ttf-dejavu/DejaVuSansMono-BoldOblique.ttf'
p397
sg21
g22
sbag7
(g8
g9
NtRp398
(dp399
g12
g13
sg14
S'FreeMono'
p400
sg16
I700
sg17
g13
sg18
g13
sg19
S'/usr/share/fonts/truetype/freefont/FreeMonoBold.ttf'
p401
sg21
g22
sbag7
(g8
g9
NtRp402
(dp403
g12
g13
sg14
S'DejaVu Sans'
p404
sg16
I700
sg17
g13
sg18
g13
sg19
S'/usr/share/fonts/truetype/ttf-dejavu/DejaVuSans-Bold.ttf'
p405
sg21
g22
sbag7
(g8
g9
NtRp406
(dp407
g12
g13
sg14
S'Garuda'
p408
sg16
I400
sg17
g13
sg18
g13
sg19
S'/usr/share/fonts/truetype/thai/Garuda.ttf'
p409
sg21
g22
sbag7
(g8
g9
NtRp410
(dp411
g12
g13
sg14
S'Phetsarath OT'
p412
sg16
I400
sg17
g13
sg18
g13
sg19
S'/usr/share/fonts/truetype/ttf-lao/Phetsarath_OT.ttf'
p413
sg21
g22
sbag7
(g8
g9
NtRp414
(dp415
g12
g29
sg14
S'Ubuntu'
p416
sg16
I200
sg17
g13
sg18
g13
sg19
S'/usr/share/fonts/truetype/ubuntu-font-family/Ubuntu-LI.ttf'
p417
sg21
g22
sbag7
(g8
g9
NtRp418
(dp419
g12
g123
sg14
S'TlwgTypewriter'
p420
sg16
I700
sg17
g13
sg18
g13
sg19
S'/usr/share/fonts/truetype/thai/TlwgTypewriter-BoldOblique.ttf'
p421
sg21
g22
sbag7
(g8
g9
NtRp422
(dp423
g12
g13
sg14
S'Garuda'
p424
sg16
I700
sg17
g13
sg18
g13
sg19
S'/usr/share/fonts/truetype/thai/Garuda-Bold.ttf'
p425
sg21
g22
sbag7
(g8
g9
NtRp426
(dp427
g12
g13
sg14
S'Loma'
p428
sg16
I400
sg17
g13
sg18
g13
sg19
S'/usr/share/fonts/truetype/thai/Loma.ttf'
p429
sg21
g22
sbag7
(g8
g9
NtRp430
(dp431
g12
g123
sg14
S'Umpush'
p432
sg16
I200
sg17
g13
sg18
g13
sg19
S'/usr/share/fonts/truetype/thai/Umpush-LightOblique.ttf'
p433
sg21
g22
sbag7
(g8
g9
NtRp434
(dp435
g12
g13
sg14
S'Rekha'
p436
sg16
I400
sg17
g13
sg18
g13
sg19
S'/usr/share/fonts/truetype/ttf-indic-fonts-core/Rekha.ttf'
p437
sg21
g22
sbag7
(g8
g9
NtRp438
(dp439
g12
g13
sg14
S'Kinnari'
p440
sg16
I700
sg17
g13
sg18
g13
sg19
S'/usr/share/fonts/truetype/thai/Kinnari-Bold.ttf'
p441
sg21
g22
sbag7
(g8
g9
NtRp442
(dp443
g12
g13
sg14
S'DejaVu Sans'
p444
sg16
I400
sg17
g13
sg18
g13
sg19
S'/usr/share/fonts/truetype/ttf-dejavu/DejaVuSans.ttf'
p445
sg21
g22
sbag7
(g8
g9
NtRp446
(dp447
g12
g13
sg14
S'Ubuntu Mono'
p448
sg16
I700
sg17
g13
sg18
g13
sg19
S'/usr/share/fonts/truetype/ubuntu-font-family/UbuntuMono-B.ttf'
p449
sg21
g22
sbag7
(g8
g9
NtRp450
(dp451
g12
g13
sg14
S'esint10'
p452
sg16
I400
sg17
g13
sg18
g13
sg19
S'/usr/share/fonts/truetype/ttf-lyx/esint10.ttf'
p453
sg21
g22
sbag7
(g8
g9
NtRp454
(dp455
g12
g123
sg14
S'Loma'
p456
sg16
I400
sg17
g13
sg18
g13
sg19
S'/usr/share/fonts/truetype/thai/Loma-Oblique.ttf'
p457
sg21
g22
sbag7
(g8
g9
NtRp458
(dp459
g12
g13
sg14
S'OpenSymbol'
p460
sg16
I400
sg17
g13
sg18
g13
sg19
S'/usr/share/fonts/truetype/openoffice/opens___.ttf'
p461
sg21
g22
sbag7
(g8
g9
NtRp462
(dp463
g12
g13
sg14
S'UnBatang'
p464
sg16
I400
sg17
g13
sg18
g13
sg19
S'/usr/share/fonts/truetype/unfonts/UnBatang.ttf'
p465
sg21
g22
sbag7
(g8
g9
NtRp466
(dp467
g12
g13
sg14
S'gargi'
p468
sg16
I400
sg17
g13
sg18
g13
sg19
S'/usr/share/fonts/truetype/ttf-indic-fonts-core/gargi.ttf'
p469
sg21
g22
sbag7
(g8
g9
NtRp470
(dp471
g12
g29
sg14
S'Ubuntu'
p472
sg16
I700
sg17
g13
sg18
g13
sg19
S'/usr/share/fonts/truetype/ubuntu-font-family/Ubuntu-BI.ttf'
p473
sg21
g22
sbag7
(g8
g9
NtRp474
(dp475
g12
g13
sg14
S'Khmer OS System'
p476
sg16
I400
sg17
g13
sg18
g13
sg19
S'/usr/share/fonts/truetype/ttf-khmeros-core/KhmerOSsys.ttf'
p477
sg21
g22
sbag7
(g8
g9
NtRp478
(dp479
g12
g29
sg14
S'Kinnari'
p480
sg16
I400
sg17
g13
sg18
g13
sg19
S'/usr/share/fonts/truetype/thai/Kinnari-Italic.ttf'
p481
sg21
g22
sbag7
(g8
g9
NtRp482
(dp483
g12
g29
sg14
S'DejaVu Serif'
p484
sg16
I400
sg17
g119
sg18
g13
sg19
S'/usr/share/fonts/truetype/ttf-dejavu/DejaVuSerifCondensed-Italic.ttf'
p485
sg21
g22
sbag7
(g8
g9
NtRp486
(dp487
g12
g13
sg14
S'TakaoPGothic'
p488
sg16
I400
sg17
g13
sg18
g13
sg19
S'/usr/share/fonts/truetype/takao/TakaoPGothic.ttf'
p489
sg21
g22
sbag7
(g8
g9
NtRp490
(dp491
g12
g13
sg14
S'Mukti Narrow'
p492
sg16
I700
sg17
g13
sg18
g13
sg19
S'/usr/share/fonts/truetype/ttf-indic-fonts-core/MuktiNarrowBold.ttf'
p493
sg21
g22
sbag7
(g8
g9
NtRp494
(dp495
g12
g13
sg14
S'UnDotum'
p496
sg16
I400
sg17
g13
sg18
g13
sg19
S'/usr/share/fonts/truetype/unfonts/UnDotum.ttf'
p497
sg21
g22
sbag7
(g8
g9
NtRp498
(dp499
g12
g29
sg14
S'Kinnari'
p500
sg16
I700
sg17
g13
sg18
g13
sg19
S'/usr/share/fonts/truetype/thai/Kinnari-BoldItalic.ttf'
p501
sg21
g22
sbag7
(g8
g9
NtRp502
(dp503
g12
g13
sg14
S'Ubuntu'
p504
sg16
I700
sg17
g13
sg18
g13
sg19
S'/usr/share/fonts/truetype/ubuntu-font-family/Ubuntu-B.ttf'
p505
sg21
g22
sbag7
(g8
g9
NtRp506
(dp507
g12
g123
sg14
S'FreeSans'
p508
sg16
I700
sg17
g13
sg18
g13
sg19
S'/usr/share/fonts/truetype/freefont/FreeSansBoldOblique.ttf'
p509
sg21
g22
sbag7
(g8
g9
NtRp510
(dp511
g12
g13
sg14
S'Purisa'
p512
sg16
I400
sg17
g13
sg18
g13
sg19
S'/usr/share/fonts/truetype/thai/Purisa.ttf'
p513
sg21
g22
sbag7
(g8
g9
NtRp514
(dp515
g12
g13
sg14
S'Kinnari'
p516
sg16
I400
sg17
g13
sg18
g13
sg19
S'/usr/share/fonts/truetype/thai/Kinnari.ttf'
p517
sg21
g22
sbag7
(g8
g9
NtRp518
(dp519
g12
g13
sg14
S'Liberation Serif'
p520
sg16
I400
sg17
g13
sg18
g13
sg19
S'/usr/share/fonts/truetype/ttf-liberation/LiberationSerif-Regular.ttf'
p521
sg21
g22
sbag7
(g8
g9
NtRp522
(dp523
g12
g123
sg14
S'FreeMono'
p524
sg16
I700
sg17
g13
sg18
g13
sg19
S'/usr/share/fonts/truetype/freefont/FreeMonoBoldOblique.ttf'
p525
sg21
g22
sbag7
(g8
g9
NtRp526
(dp527
g12
g13
sg14
S'Tlwg Typist'
p528
sg16
I400
sg17
g13
sg18
g13
sg19
S'/usr/share/fonts/truetype/thai/TlwgTypist.ttf'
p529
sg21
g22
sbag7
(g8
g9
NtRp530
(dp531
g12
g123
sg14
S'Norasi'
p532
sg16
I400
sg17
g13
sg18
g13
sg19
S'/usr/share/fonts/truetype/thai/Norasi-Oblique.ttf'
p533
sg21
g22
sbag7
(g8
g9
NtRp534
(dp535
g12
g123
sg14
S'Kinnari'
p536
sg16
I400
sg17
g13
sg18
g13
sg19
S'/usr/share/fonts/truetype/thai/Kinnari-Oblique.ttf'
p537
sg21
g22
sbag7
(g8
g9
NtRp538
(dp539
g12
g29
sg14
S'FreeSerif'
p540
sg16
I700
sg17
g13
sg18
g13
sg19
S'/usr/share/fonts/truetype/freefont/FreeSerifBoldItalic.ttf'
p541
sg21
g22
sbag7
(g8
g9
NtRp542
(dp543
g12
g13
sg14
S'Tlwg Typo'
p544
sg16
I400
sg17
g13
sg18
g13
sg19
S'/usr/share/fonts/truetype/thai/TlwgTypo.ttf'
p545
sg21
g22
sbag7
(g8
g9
NtRp546
(dp547
g12
g13
sg14
S'Vemana2000'
p548
sg16
I400
sg17
g13
sg18
g13
sg19
S'/usr/share/fonts/truetype/ttf-indic-fonts-core/Vemana.ttf'
p549
sg21
g22
sbag7
(g8
g9
NtRp550
(dp551
g12
g13
sg14
S'msam10'
p552
sg16
I400
sg17
g13
sg18
g13
sg19
S'/usr/share/fonts/truetype/ttf-lyx/msam10.ttf'
p553
sg21
g22
sbag7
(g8
g9
NtRp554
(dp555
g12
g13
sg14
S'Waree'
p556
sg16
I700
sg17
g13
sg18
g13
sg19
S'/usr/share/fonts/truetype/thai/Waree-Bold.ttf'
p557
sg21
g22
sbag7
(g8
g9
NtRp558
(dp559
g12
g13
sg14
S'Liberation Sans Narrow'
p560
sg16
I700
sg17
g119
sg18
g13
sg19
S'/usr/share/fonts/truetype/ttf-liberation/LiberationSansNarrow-Bold.ttf'
p561
sg21
g22
sbag7
(g8
g9
NtRp562
(dp563
g12
g13
sg14
S'Lohit Tamil'
p564
sg16
I400
sg17
g13
sg18
g13
sg19
S'/usr/share/fonts/truetype/ttf-indic-fonts-core/lohit_ta.ttf'
p565
sg21
g22
sbag7
(g8
g9
NtRp566
(dp567
g12
g13
sg14
S'Ubuntu Condensed'
p568
sg16
I400
sg17
g119
sg18
g13
sg19
S'/usr/share/fonts/truetype/ubuntu-font-family/Ubuntu-C.ttf'
p569
sg21
g22
sbag7
(g8
g9
NtRp570
(dp571
g12
g29
sg14
S'Ubuntu Mono'
p572
sg16
I700
sg17
g13
sg18
g13
sg19
S'/usr/share/fonts/truetype/ubuntu-font-family/UbuntuMono-BI.ttf'
p573
sg21
g22
sbag7
(g8
g9
NtRp574
(dp575
g12
g13
sg14
S'DejaVu Serif'
p576
sg16
I700
sg17
g119
sg18
g13
sg19
S'/usr/share/fonts/truetype/ttf-dejavu/DejaVuSerifCondensed-Bold.ttf'
p577
sg21
g22
sbag7
(g8
g9
NtRp578
(dp579
g12
g13
sg14
S'Umpush'
p580
sg16
I700
sg17
g13
sg18
g13
sg19
S'/usr/share/fonts/truetype/thai/Umpush-Bold.ttf'
p581
sg21
g22
sbag7
(g8
g9
NtRp582
(dp583
g12
g13
sg14
S'DejaVu Serif'
p584
sg16
I400
sg17
g13
sg18
g13
sg19
S'/usr/share/fonts/truetype/ttf-dejavu/DejaVuSerif.ttf'
p585
sg21
g22
sbag7
(g8
g9
NtRp586
(dp587
g12
g13
sg14
S'Kedage'
p588
sg16
I400
sg17
g13
sg18
g13
sg19
S'/usr/share/fonts/truetype/ttf-indic-fonts-core/Kedage-n.ttf'
p589
sg21
g22
sbag7
(g8
g9
NtRp590
(dp591
g12
g123
sg14
S'FreeMono'
p592
sg16
I400
sg17
g13
sg18
g13
sg19
S'/usr/share/fonts/truetype/freefont/FreeMonoOblique.ttf'
p593
sg21
g22
sbag7
(g8
g9
NtRp594
(dp595
g12
g13
sg14
S'TlwgTypewriter'
p596
sg16
I700
sg17
g13
sg18
g13
sg19
S'/usr/share/fonts/truetype/thai/TlwgTypewriter-Bold.ttf'
p597
sg21
g22
sbag7
(g8
g9
NtRp598
(dp599
g12
g13
sg14
S'Norasi'
p600
sg16
I700
sg17
g13
sg18
g13
sg19
S'/usr/share/fonts/truetype/thai/Norasi-Bold.ttf'
p601
sg21
g22
sbag7
(g8
g9
NtRp602
(dp603
g12
g13
sg14
S'Umpush'
p604
sg16
I200
sg17
g13
sg18
g13
sg19
S'/usr/share/fonts/truetype/thai/Umpush-Light.ttf'
p605
sg21
g22
sbag7
(g8
g9
NtRp606
(dp607
g12
g123
sg14
S'Garuda'
p608
sg16
I400
sg17
g13
sg18
g13
sg19
S'/usr/share/fonts/truetype/thai/Garuda-Oblique.ttf'
p609
sg21
g22
sbag7
(g8
g9
NtRp610
(dp611
g12
g13
sg14
S'Liberation Sans'
p612
sg16
I700
sg17
g13
sg18
g13
sg19
S'/usr/share/fonts/truetype/ttf-liberation/LiberationSans-Bold.ttf'
p613
sg21
g22
sbag7
(g8
g9
NtRp614
(dp615
g12
g123
sg14
S'DejaVu Sans Mono'
p616
sg16
I400
sg17
g13
sg18
g13
sg19
S'/usr/share/fonts/truetype/ttf-dejavu/DejaVuSansMono-Oblique.ttf'
p617
sg21
g22
sbag7
(g8
g9
NtRp618
(dp619
g12
g13
sg14
S'TakaoPGothic'
p620
sg16
I400
sg17
g13
sg18
g13
sg19
S'/usr/share/fonts/truetype/ttf-japanese-gothic.ttf'
p621
sg21
g22
sbag7
(g8
g9
NtRp622
(dp623
g12
g13
sg14
S'Liberation Mono'
p624
sg16
I400
sg17
g13
sg18
g13
sg19
S'/usr/share/fonts/truetype/ttf-liberation/LiberationMono-Regular.ttf'
p625
sg21
g22
sbag7
(g8
g9
NtRp626
(dp627
g12
g13
sg14
S'Purisa'
p628
sg16
I700
sg17
g13
sg18
g13
sg19
S'/usr/share/fonts/truetype/thai/Purisa-Bold.ttf'
p629
sg21
g22
sbag7
(g8
g9
NtRp630
(dp631
g12
g123
sg14
S'Umpush'
p632
sg16
I400
sg17
g13
sg18
g13
sg19
S'/usr/share/fonts/truetype/thai/Umpush-Oblique.ttf'
p633
sg21
g22
sbag7
(g8
g9
NtRp634
(dp635
g12
g29
sg14
S'Liberation Serif'
p636
sg16
I700
sg17
g13
sg18
g13
sg19
S'/usr/share/fonts/truetype/ttf-liberation/LiberationSerif-BoldItalic.ttf'
p637
sg21
g22
sbag7
(g8
g9
NtRp638
(dp639
g12
g123
sg14
S'Sawasdee'
p640
sg16
I400
sg17
g13
sg18
g13
sg19
S'/usr/share/fonts/truetype/thai/Sawasdee-Oblique.ttf'
p641
sg21
g22
sbag7
(g8
g9
NtRp642
(dp643
g12
g123
sg14
S'Garuda'
p644
sg16
I700
sg17
g13
sg18
g13
sg19
S'/usr/share/fonts/truetype/thai/Garuda-BoldOblique.ttf'
p645
sg21
g22
sbag7
(g8
g9
NtRp646
(dp647
g12
g13
sg14
S'DejaVu Serif'
p648
sg16
I400
sg17
g119
sg18
g13
sg19
S'/usr/share/fonts/truetype/ttf-dejavu/DejaVuSerifCondensed.ttf'
p649
sg21
g22
sbag7
(g8
g9
NtRp650
(dp651
g12
g123
sg14
S'Purisa'
p652
sg16
I400
sg17
g13
sg18
g13
sg19
S'/usr/share/fonts/truetype/thai/Purisa-Oblique.ttf'
p653
sg21
g22
sbag7
(g8
g9
NtRp654
(dp655
g12
g13
sg14
S'Saab'
p656
sg16
I400
sg17
g13
sg18
g13
sg19
S'/usr/share/fonts/truetype/ttf-punjabi-fonts/Saab.ttf'
p657
sg21
g22
sbag7
(g8
g9
NtRp658
(dp659
g12
g13
sg14
S'Lohit Gujarati'
p660
sg16
I400
sg17
g13
sg18
g13
sg19
S'/usr/share/fonts/truetype/ttf-indic-fonts-core/lohit_gu.ttf'
p661
sg21
g22
sbag7
(g8
g9
NtRp662
(dp663
g12
g123
sg14
S'Tlwg Typist'
p664
sg16
I700
sg17
g13
sg18
g13
sg19
S'/usr/share/fonts/truetype/thai/TlwgTypist-BoldOblique.ttf'
p665
sg21
g22
sbag7
(g8
g9
NtRp666
(dp667
g12
g13
sg14
S'Khmer OS'
p668
sg16
I400
sg17
g13
sg18
g13
sg19
S'/usr/share/fonts/truetype/ttf-khmeros-core/KhmerOS.ttf'
p669
sg21
g22
sbag7
(g8
g9
NtRp670
(dp671
g12
g13
sg14
S'Tlwg Typo'
p672
sg16
I700
sg17
g13
sg18
g13
sg19
S'/usr/share/fonts/truetype/thai/TlwgTypo-Bold.ttf'
p673
sg21
g22
sbag7
(g8
g9
NtRp674
(dp675
g12
g123
sg14
S'Waree'
p676
sg16
I400
sg17
g13
sg18
g13
sg19
S'/usr/share/fonts/truetype/thai/Waree-Oblique.ttf'
p677
sg21
g22
sbag7
(g8
g9
NtRp678
(dp679
g12
g29
sg14
S'Ubuntu Mono'
p680
sg16
I400
sg17
g13
sg18
g13
sg19
S'/usr/share/fonts/truetype/ubuntu-font-family/UbuntuMono-RI.ttf'
p681
sg21
g22
sbag7
(g8
g9
NtRp682
(dp683
g12
g13
sg14
S'DejaVu Sans'
p684
sg16
I200
sg17
g13
sg18
g13
sg19
S'/usr/share/fonts/truetype/ttf-dejavu/DejaVuSans-ExtraLight.ttf'
p685
sg21
g22
sbag7
(g8
g9
NtRp686
(dp687
g12
g13
sg14
S'FreeMono'
p688
sg16
I400
sg17
g13
sg18
g13
sg19
S'/usr/share/fonts/truetype/freefont/FreeMono.ttf'
p689
sg21
g22
sbag7
(g8
g9
NtRp690
(dp691
g12
g29
sg14
S'Norasi'
p692
sg16
I700
sg17
g13
sg18
g13
sg19
S'/usr/share/fonts/truetype/thai/Norasi-BoldItalic.ttf'
p693
sg21
g22
sbag7
(g8
g9
NtRp694
(dp695
g12
g123
sg14
S'Norasi'
p696
sg16
I700
sg17
g13
sg18
g13
sg19
S'/usr/share/fonts/truetype/thai/Norasi-BoldOblique.ttf'
p697
sg21
g22
sbag7
(g8
g9
NtRp698
(dp699
g12
g13
sg14
S'Untitled1'
p700
sg16
I400
sg17
g13
sg18
g13
sg19
S'/usr/share/fonts/truetype/freefont/Untitled1.ttf'
p701
sg21
g22
sbag7
(g8
g9
NtRp702
(dp703
g12
g29
sg14
S'FreeSerif'
p704
sg16
I400
sg17
g13
sg18
g13
sg19
S'/usr/share/fonts/truetype/freefont/FreeSerifItalic.ttf'
p705
sg21
g22
sbag7
(g8
g9
NtRp706
(dp707
g12
g13
sg14
S'Mukti Narrow'
p708
sg16
I400
sg17
g13
sg18
g13
sg19
S'/usr/share/fonts/truetype/ttf-indic-fonts-core/MuktiNarrow.ttf'
p709
sg21
g22
sbag7
(g8
g9
NtRp710
(dp711
g12
g13
sg14
S'Ubuntu'
p712
sg16
I200
sg17
g13
sg18
g13
sg19
S'/usr/share/fonts/truetype/ubuntu-font-family/Ubuntu-L.ttf'
p713
sg21
g22
sbag7
(g8
g9
NtRp714
(dp715
g12
g29
sg14
S'Norasi'
p716
sg16
I400
sg17
g13
sg18
g13
sg19
S'/usr/share/fonts/truetype/thai/Norasi-Italic.ttf'
p717
sg21
g22
sbag7
(g8
g9
NtRp718
(dp719
g12
g13
sg14
S'Liberation Sans'
p720
sg16
I400
sg17
g13
sg18
g13
sg19
S'/usr/share/fonts/truetype/ttf-liberation/LiberationSans-Regular.ttf'
p721
sg21
g22
sbasS'defaultFamily'
p722
(dp723
S'afm'
p724
S'Helvetica'
p725
sS'ttf'
p726
S'Bitstream Vera Sans'
p727
ssS'ttffiles'
p728
(lp729
S'/usr/share/matplotlib/mpl-data/fonts/ttf/cmb10.ttf'
p730
aS'/usr/share/matplotlib/mpl-data/fonts/ttf/cmex10.ttf'
p731
aS'/usr/share/matplotlib/mpl-data/fonts/ttf/STIXNonUniIta.ttf'
p732
aS'/usr/share/matplotlib/mpl-data/fonts/ttf/STIXSizOneSymReg.ttf'
p733
aS'/usr/share/matplotlib/mpl-data/fonts/ttf/STIXSizThreeSymReg.ttf'
p734
aS'/usr/share/matplotlib/mpl-data/fonts/ttf/STIXSizTwoSymBol.ttf'
p735
aS'/usr/share/matplotlib/mpl-data/fonts/ttf/cmtt10.ttf'
p736
aS'/usr/share/matplotlib/mpl-data/fonts/ttf/STIXGeneral.ttf'
p737
aS'/usr/share/matplotlib/mpl-data/fonts/ttf/STIXNonUniBolIta.ttf'
p738
aS'/usr/share/matplotlib/mpl-data/fonts/ttf/STIXSizFiveSymReg.ttf'
p739
aS'/usr/share/matplotlib/mpl-data/fonts/ttf/STIXSizOneSymBol.ttf'
p740
aS'/usr/share/matplotlib/mpl-data/fonts/ttf/STIXGeneralBol.ttf'
p741
aS'/usr/share/matplotlib/mpl-data/fonts/ttf/cmr10.ttf'
p742
aS'/usr/share/matplotlib/mpl-data/fonts/ttf/STIXSizTwoSymReg.ttf'
p743
aS'/usr/share/matplotlib/mpl-data/fonts/ttf/STIXNonUni.ttf'
p744
aS'/usr/share/matplotlib/mpl-data/fonts/ttf/cmsy10.ttf'
p745
aS'/usr/share/matplotlib/mpl-data/fonts/ttf/STIXSizThreeSymBol.ttf'
p746
aS'/usr/share/matplotlib/mpl-data/fonts/ttf/cmss10.ttf'
p747
aS'/usr/share/matplotlib/mpl-data/fonts/ttf/STIXSizFourSymBol.ttf'
p748
aS'/usr/share/matplotlib/mpl-data/fonts/ttf/STIXGeneralItalic.ttf'
p749
aS'/usr/share/matplotlib/mpl-data/fonts/ttf/cmmi10.ttf'
p750
aS'/usr/share/matplotlib/mpl-data/fonts/ttf/STIXNonUniBol.ttf'
p751
aS'/usr/share/matplotlib/mpl-data/fonts/ttf/STIXGeneralBolIta.ttf'
p752
aS'/usr/share/matplotlib/mpl-data/fonts/ttf/STIXSizFourSymReg.ttf'
p753
aS'/usr/share/fonts/truetype/ttf-liberation/LiberationSansNarrow-Regular.ttf'
p754
aS'/usr/share/fonts/truetype/thai/Purisa-BoldOblique.ttf'
p755
aS'/usr/share/fonts/truetype/ttf-indic-fonts-core/Malige-b.ttf'
p756
aS'/usr/share/fonts/truetype/thai/Kinnari-BoldOblique.ttf'
p757
aS'/usr/share/fonts/truetype/thai/TlwgTypo-Oblique.ttf'
p758
aS'/usr/share/fonts/truetype/thai/TlwgTypo-BoldOblique.ttf'
p759
aS'/usr/share/fonts/truetype/thai/Umpush.ttf'
p760
aS'/usr/share/fonts/truetype/ttf-liberation/LiberationSans-Italic.ttf'
p761
aS'/usr/share/fonts/truetype/thai/Loma-BoldOblique.ttf'
p762
aS'/usr/share/fonts/truetype/freefont/FreeSans.ttf'
p763
aS'/usr/share/fonts/truetype/unfonts/UnBatangBold.ttf'
p764
aS'/usr/share/fonts/truetype/freefont/FreeSerif.ttf'
p765
aS'/usr/share/fonts/truetype/ttf-lyx/rsfs10.ttf'
p766
aS'/usr/share/fonts/truetype/ttf-dejavu/DejaVuSansCondensed.ttf'
p767
aS'/usr/share/fonts/truetype/ttf-liberation/LiberationMono-Bold.ttf'
p768
aS'/usr/share/fonts/truetype/thai/TlwgTypewriter-Oblique.ttf'
p769
aS'/usr/share/fonts/truetype/ttf-dejavu/DejaVuSansMono.ttf'
p770
aS'/usr/share/fonts/truetype/ttf-punjabi-fonts/lohit_pa.ttf'
p771
aS'/usr/share/fonts/truetype/thai/TlwgMono-Oblique.ttf'
p772
aS'/usr/share/fonts/truetype/ttf-indic-fonts-core/Meera_04.ttf'
p773
aS'/usr/share/fonts/truetype/thai/TlwgMono.ttf'
p774
aS'/usr/share/fonts/truetype/ubuntu-font-family/Ubuntu-RI.ttf'
p775
aS'/usr/share/fonts/truetype/freefont/FreeSerifBold.ttf'
p776
aS'/usr/share/fonts/truetype/thai/Umpush-BoldOblique.ttf'
p777
aS'/usr/share/fonts/truetype/ttf-liberation/LiberationMono-Italic.ttf'
p778
aS'/usr/share/fonts/truetype/ttf-indic-fonts-core/Rachana_04.ttf'
p779
aS'/usr/share/fonts/truetype/ttf-dejavu/DejaVuSerif-Italic.ttf'
p780
aS'/usr/share/fonts/truetype/freefont/FreeSansOblique.ttf'
p781
aS'/usr/share/fonts/truetype/ubuntu-font-family/UbuntuMono-R.ttf'
p782
aS'/usr/share/fonts/truetype/thai/TlwgMono-Bold.ttf'
p783
aS'/usr/share/fonts/truetype/ttf-indic-fonts-core/lohit_hi.ttf'
p784
aS'/usr/share/fonts/truetype/ttf-dejavu/DejaVuSans-Oblique.ttf'
p785
aS'/usr/share/fonts/truetype/unfonts/UnDotumBold.ttf'
p786
aS'/usr/share/fonts/truetype/thai/Norasi.ttf'
p787
aS'/usr/share/fonts/truetype/ubuntu-font-family/Ubuntu-R.ttf'
p788
aS'/usr/share/fonts/truetype/ttf-lyx/eufm10.ttf'
p789
aS'/usr/share/fonts/truetype/ttf-dejavu/DejaVuSans-BoldOblique.ttf'
p790
aS'/usr/share/fonts/truetype/ttf-liberation/LiberationSansNarrow-Italic.ttf'
p791
aS'/usr/share/fonts/truetype/ttf-lyx/wasy10.ttf'
p792
aS'/usr/share/fonts/truetype/ttf-dejavu/DejaVuSansCondensed-BoldOblique.ttf'
p793
aS'/usr/share/fonts/truetype/ttf-dejavu/DejaVuSansCondensed-Bold.ttf'
p794
aS'/usr/share/fonts/truetype/thai/Sawasdee-Bold.ttf'
p795
aS'/usr/share/fonts/truetype/ttf-lyx/msbm10.ttf'
p796
aS'/usr/share/fonts/truetype/thai/Waree.ttf'
p797
aS'/usr/share/fonts/truetype/ttf-dejavu/DejaVuSansMono-Bold.ttf'
p798
aS'/usr/share/fonts/truetype/thai/Sawasdee-BoldOblique.ttf'
p799
aS'/usr/share/fonts/truetype/ttf-indic-fonts-core/Pothana2000.ttf'
p800
aS'/usr/share/fonts/truetype/thai/Waree-BoldOblique.ttf'
p801
aS'/usr/share/fonts/truetype/thai/TlwgTypewriter.ttf'
p802
aS'/usr/share/fonts/truetype/ttf-dejavu/DejaVuSansCondensed-Oblique.ttf'
p803
aS'/usr/share/fonts/truetype/ttf-indic-fonts-core/utkal.ttf'
p804
aS'/usr/share/fonts/truetype/ttf-liberation/LiberationSerif-Italic.ttf'
p805
aS'/usr/share/fonts/truetype/ttf-dejavu/DejaVuSerif-BoldItalic.ttf'
p806
aS'/usr/share/fonts/truetype/thai/TlwgMono-BoldOblique.ttf'
p807
aS'/usr/share/fonts/truetype/thai/TlwgTypist-Oblique.ttf'
p808
aS'/usr/share/fonts/truetype/ttf-liberation/LiberationSansNarrow-BoldItalic.ttf'
p809
aS'/usr/share/fonts/truetype/ttf-indic-fonts-core/Kedage-b.ttf'
p810
aS'/usr/share/fonts/truetype/ttf-dejavu/DejaVuSerif-Bold.ttf'
p811
aS'/usr/share/fonts/truetype/ttf-kacst-one/KacstOne.ttf'
p812
aS'/usr/share/fonts/truetype/ttf-liberation/LiberationSerif-Bold.ttf'
p813
aS'/usr/share/fonts/truetype/thai/TlwgTypist-Bold.ttf'
p814
aS'/usr/share/fonts/truetype/ttf-liberation/LiberationMono-BoldItalic.ttf'
p815
aS'/usr/share/fonts/truetype/ttf-liberation/LiberationSans-BoldItalic.ttf'
p816
aS'/usr/share/fonts/truetype/ttf-indic-fonts-core/Malige-n.ttf'
p817
aS'/usr/share/fonts/truetype/ttf-dejavu/DejaVuSerifCondensed-BoldItalic.ttf'
p818
aS'/usr/share/fonts/truetype/freefont/FreeSansBold.ttf'
p819
aS'/usr/share/fonts/truetype/thai/Loma-Bold.ttf'
p820
aS'/usr/share/fonts/truetype/ttf-indic-fonts-core/lohit_bn.ttf'
p821
aS'/usr/share/fonts/truetype/thai/Sawasdee.ttf'
p822
aS'/usr/share/fonts/truetype/ttf-dejavu/DejaVuSansMono-BoldOblique.ttf'
p823
aS'/usr/share/fonts/truetype/freefont/FreeMonoBold.ttf'
p824
aS'/usr/share/fonts/truetype/ttf-dejavu/DejaVuSans-Bold.ttf'
p825
aS'/usr/share/fonts/truetype/thai/Garuda.ttf'
p826
aS'/usr/share/fonts/truetype/ttf-lao/Phetsarath_OT.ttf'
p827
aS'/usr/share/fonts/truetype/ubuntu-font-family/Ubuntu-LI.ttf'
p828
aS'/usr/share/fonts/truetype/thai/TlwgTypewriter-BoldOblique.ttf'
p829
aS'/usr/share/fonts/truetype/thai/Garuda-Bold.ttf'
p830
aS'/usr/share/fonts/truetype/thai/Loma.ttf'
p831
aS'/usr/share/fonts/truetype/thai/Umpush-LightOblique.ttf'
p832
aS'/usr/share/fonts/truetype/ttf-indic-fonts-core/Rekha.ttf'
p833
aS'/usr/share/fonts/truetype/thai/Kinnari-Bold.ttf'
p834
aS'/usr/share/fonts/truetype/ttf-dejavu/DejaVuSans.ttf'
p835
aS'/usr/share/fonts/truetype/ubuntu-font-family/UbuntuMono-B.ttf'
p836
aS'/usr/share/fonts/truetype/ttf-lyx/esint10.ttf'
p837
aS'/usr/share/fonts/truetype/thai/Loma-Oblique.ttf'
p838
aS'/usr/share/fonts/truetype/openoffice/opens___.ttf'
p839
aS'/usr/share/fonts/truetype/unfonts/UnBatang.ttf'
p840
aS'/usr/share/fonts/truetype/ttf-indic-fonts-core/gargi.ttf'
p841
aS'/usr/share/fonts/truetype/ubuntu-font-family/Ubuntu-BI.ttf'
p842
aS'/usr/share/fonts/truetype/ttf-khmeros-core/KhmerOSsys.ttf'
p843
aS'/usr/share/fonts/truetype/thai/Kinnari-Italic.ttf'
p844
aS'/usr/share/fonts/truetype/ttf-dejavu/DejaVuSerifCondensed-Italic.ttf'
p845
aS'/usr/share/fonts/truetype/takao/TakaoPGothic.ttf'
p846
aS'/usr/share/fonts/truetype/ttf-indic-fonts-core/MuktiNarrowBold.ttf'
p847
aS'/usr/share/fonts/truetype/unfonts/UnDotum.ttf'
p848
aS'/usr/share/fonts/truetype/thai/Kinnari-BoldItalic.ttf'
p849
aS'/usr/share/fonts/truetype/ubuntu-font-family/Ubuntu-B.ttf'
p850
aS'/usr/share/fonts/truetype/freefont/FreeSansBoldOblique.ttf'
p851
aS'/usr/share/fonts/truetype/thai/Purisa.ttf'
p852
aS'/usr/share/fonts/truetype/thai/Kinnari.ttf'
p853
aS'/usr/share/fonts/truetype/ttf-liberation/LiberationSerif-Regular.ttf'
p854
aS'/usr/share/fonts/truetype/freefont/FreeMonoBoldOblique.ttf'
p855
aS'/usr/share/fonts/truetype/thai/TlwgTypist.ttf'
p856
aS'/usr/share/fonts/truetype/thai/Norasi-Oblique.ttf'
p857
aS'/usr/share/fonts/truetype/thai/Kinnari-Oblique.ttf'
p858
aS'/usr/share/fonts/truetype/ttf-lyx/cmr10.ttf'
p859
aS'/usr/share/fonts/truetype/freefont/FreeSerifBoldItalic.ttf'
p860
aS'/usr/share/fonts/truetype/thai/TlwgTypo.ttf'
p861
aS'/usr/share/fonts/truetype/ttf-indic-fonts-core/Vemana.ttf'
p862
aS'/usr/share/fonts/truetype/ttf-lyx/cmmi10.ttf'
p863
aS'/usr/share/fonts/truetype/ttf-lyx/msam10.ttf'
p864
aS'/usr/share/fonts/truetype/thai/Waree-Bold.ttf'
p865
aS'/usr/share/fonts/truetype/ttf-liberation/LiberationSansNarrow-Bold.ttf'
p866
aS'/usr/share/fonts/truetype/ttf-indic-fonts-core/lohit_ta.ttf'
p867
aS'/usr/share/fonts/truetype/ubuntu-font-family/Ubuntu-C.ttf'
p868
aS'/usr/share/fonts/truetype/ttf-lyx/cmsy10.ttf'
p869
aS'/usr/share/fonts/truetype/ubuntu-font-family/UbuntuMono-BI.ttf'
p870
aS'/usr/share/fonts/truetype/ttf-dejavu/DejaVuSerifCondensed-Bold.ttf'
p871
aS'/usr/share/fonts/truetype/thai/Umpush-Bold.ttf'
p872
aS'/usr/share/fonts/truetype/ttf-dejavu/DejaVuSerif.ttf'
p873
aS'/usr/share/fonts/truetype/ttf-indic-fonts-core/Kedage-n.ttf'
p874
aS'/usr/share/fonts/truetype/freefont/FreeMonoOblique.ttf'
p875
aS'/usr/share/fonts/truetype/thai/TlwgTypewriter-Bold.ttf'
p876
aS'/usr/share/fonts/truetype/thai/Norasi-Bold.ttf'
p877
aS'/usr/share/fonts/truetype/thai/Umpush-Light.ttf'
p878
aS'/usr/share/fonts/truetype/thai/Garuda-Oblique.ttf'
p879
aS'/usr/share/fonts/truetype/ttf-liberation/LiberationSans-Bold.ttf'
p880
aS'/usr/share/fonts/truetype/ttf-dejavu/DejaVuSansMono-Oblique.ttf'
p881
aS'/usr/share/fonts/truetype/ttf-japanese-gothic.ttf'
p882
aS'/usr/share/fonts/truetype/ttf-liberation/LiberationMono-Regular.ttf'
p883
aS'/usr/share/fonts/truetype/thai/Purisa-Bold.ttf'
p884
aS'/usr/share/fonts/truetype/thai/Umpush-Oblique.ttf'
p885
aS'/usr/share/fonts/truetype/ttf-liberation/LiberationSerif-BoldItalic.ttf'
p886
aS'/usr/share/fonts/truetype/thai/Sawasdee-Oblique.ttf'
p887
aS'/usr/share/fonts/truetype/thai/Garuda-BoldOblique.ttf'
p888
aS'/usr/share/fonts/truetype/ttf-dejavu/DejaVuSerifCondensed.ttf'
p889
aS'/usr/share/fonts/truetype/thai/Purisa-Oblique.ttf'
p890
aS'/usr/share/fonts/truetype/ttf-punjabi-fonts/Saab.ttf'
p891
aS'/usr/share/fonts/truetype/ttf-indic-fonts-core/lohit_gu.ttf'
p892
aS'/usr/share/fonts/truetype/thai/TlwgTypist-BoldOblique.ttf'
p893
aS'/usr/share/fonts/truetype/ttf-khmeros-core/KhmerOS.ttf'
p894
aS'/usr/share/fonts/truetype/thai/TlwgTypo-Bold.ttf'
p895
aS'/usr/share/fonts/truetype/thai/Waree-Oblique.ttf'
p896
aS'/usr/share/fonts/truetype/ubuntu-font-family/UbuntuMono-RI.ttf'
p897
aS'/usr/share/fonts/truetype/ttf-dejavu/DejaVuSans-ExtraLight.ttf'
p898
aS'/usr/share/fonts/truetype/freefont/FreeMono.ttf'
p899
aS'/usr/share/fonts/truetype/thai/Norasi-BoldItalic.ttf'
p900
aS'/usr/share/fonts/truetype/thai/Norasi-BoldOblique.ttf'
p901
aS'/usr/share/fonts/truetype/freefont/Untitled1.ttf'
p902
aS'/usr/share/fonts/truetype/freefont/FreeSerifItalic.ttf'
p903
aS'/usr/share/fonts/truetype/ttf-indic-fonts-core/MuktiNarrow.ttf'
p904
aS'/usr/share/fonts/truetype/ubuntu-font-family/Ubuntu-L.ttf'
p905
aS'/usr/share/fonts/truetype/thai/Norasi-Italic.ttf'
p906
aS'/usr/share/fonts/truetype/ttf-lyx/cmex10.ttf'
p907
aS'/usr/share/fonts/truetype/ttf-liberation/LiberationSans-Regular.ttf'
p908
asS'_FontManager__default_weight'
p909
g13
sS'_version'
p910
I7
sS'ttf_lookup_cache'
p911
(dp912
sS'default_size'
p913
NsS'defaultFont'
p914
(dp915
g724
Nsg726
g730
ssS'afmfiles'
p916
(lp917
S'/usr/share/matplotlib/mpl-data/fonts/afm/pagko8a.afm'
p918
aS'/usr/share/matplotlib/mpl-data/fonts/afm/pzcmi8a.afm'
p919
aS'/usr/share/matplotlib/mpl-data/fonts/afm/phvl8a.afm'
p920
aS'/usr/share/matplotlib/mpl-data/fonts/afm/putbi8a.afm'
p921
aS'/usr/share/matplotlib/mpl-data/fonts/pdfcorefonts/Helvetica-BoldOblique.afm'
p922
aS'/usr/share/matplotlib/mpl-data/fonts/afm/phvb8an.afm'
p923
aS'/usr/share/matplotlib/mpl-data/fonts/afm/pbkd8a.afm'
p924
aS'/usr/share/matplotlib/mpl-data/fonts/afm/pncri8a.afm'
p925
aS'/usr/share/matplotlib/mpl-data/fonts/pdfcorefonts/Helvetica-Bold.afm'
p926
aS'/usr/share/matplotlib/mpl-data/fonts/pdfcorefonts/Times-BoldItalic.afm'
p927
aS'/usr/share/matplotlib/mpl-data/fonts/afm/pcrb8a.afm'
p928
aS'/usr/share/matplotlib/mpl-data/fonts/afm/pagdo8a.afm'
p929
aS'/usr/share/matplotlib/mpl-data/fonts/afm/pcrr8a.afm'
p930
aS'/usr/share/matplotlib/mpl-data/fonts/afm/pncb8a.afm'
p931
aS'/usr/share/matplotlib/mpl-data/fonts/pdfcorefonts/Courier-Bold.afm'
p932
aS'/usr/share/matplotlib/mpl-data/fonts/afm/pncbi8a.afm'
p933
aS'/usr/share/matplotlib/mpl-data/fonts/afm/cmex10.afm'
p934
aS'/usr/share/matplotlib/mpl-data/fonts/afm/cmtt10.afm'
p935
aS'/usr/share/matplotlib/mpl-data/fonts/pdfcorefonts/Symbol.afm'
p936
aS'/usr/share/matplotlib/mpl-data/fonts/afm/phvr8an.afm'
p937
aS'/usr/share/matplotlib/mpl-data/fonts/afm/phvro8a.afm'
p938
aS'/usr/share/matplotlib/mpl-data/fonts/afm/ptmr8a.afm'
p939
aS'/usr/share/matplotlib/mpl-data/fonts/pdfcorefonts/Helvetica-Oblique.afm'
p940
aS'/usr/share/matplotlib/mpl-data/fonts/afm/pplbi8a.afm'
p941
aS'/usr/share/matplotlib/mpl-data/fonts/afm/cmsy10.afm'
p942
aS'/usr/share/matplotlib/mpl-data/fonts/afm/pagk8a.afm'
p943
aS'/usr/share/matplotlib/mpl-data/fonts/pdfcorefonts/Courier-BoldOblique.afm'
p944
aS'/usr/share/matplotlib/mpl-data/fonts/afm/putb8a.afm'
p945
aS'/usr/share/matplotlib/mpl-data/fonts/afm/cmmi10.afm'
p946
aS'/usr/share/matplotlib/mpl-data/fonts/afm/pplb8a.afm'
p947
aS'/usr/share/matplotlib/mpl-data/fonts/afm/pbkdi8a.afm'
p948
aS'/usr/share/matplotlib/mpl-data/fonts/afm/phvbo8a.afm'
p949
aS'/usr/share/matplotlib/mpl-data/fonts/afm/cmr10.afm'
p950
aS'/usr/share/matplotlib/mpl-data/fonts/pdfcorefonts/Times-Bold.afm'
p951
aS'/usr/share/matplotlib/mpl-data/fonts/afm/ptmb8a.afm'
p952
aS'/usr/share/matplotlib/mpl-data/fonts/afm/phvlo8a.afm'
p953
aS'/usr/share/matplotlib/mpl-data/fonts/afm/phvb8a.afm'
p954
aS'/usr/share/matplotlib/mpl-data/fonts/afm/pzdr.afm'
p955
aS'/usr/share/matplotlib/mpl-data/fonts/afm/ptmri8a.afm'
p956
aS'/usr/share/matplotlib/mpl-data/fonts/afm/pplr8a.afm'
p957
aS'/usr/share/matplotlib/mpl-data/fonts/afm/pbkl8a.afm'
p958
aS'/usr/share/matplotlib/mpl-data/fonts/afm/pcrro8a.afm'
p959
aS'/usr/share/matplotlib/mpl-data/fonts/pdfcorefonts/ZapfDingbats.afm'
p960
aS'/usr/share/matplotlib/mpl-data/fonts/afm/psyr.afm'
p961
aS'/usr/share/matplotlib/mpl-data/fonts/pdfcorefonts/Helvetica.afm'
p962
aS'/usr/share/matplotlib/mpl-data/fonts/afm/pplri8a.afm'
p963
aS'/usr/share/matplotlib/mpl-data/fonts/afm/ptmbi8a.afm'
p964
aS'/usr/share/matplotlib/mpl-data/fonts/afm/pbkli8a.afm'
p965
aS'/usr/share/matplotlib/mpl-data/fonts/pdfcorefonts/Courier-Oblique.afm'
p966
aS'/usr/share/matplotlib/mpl-data/fonts/afm/putr8a.afm'
p967
aS'/usr/share/matplotlib/mpl-data/fonts/afm/pagd8a.afm'
p968
aS'/usr/share/matplotlib/mpl-data/fonts/afm/pncr8a.afm'
p969
aS'/usr/share/matplotlib/mpl-data/fonts/afm/phvbo8an.afm'
p970
aS'/usr/share/matplotlib/mpl-data/fonts/pdfcorefonts/Times-Italic.afm'
p971
aS'/usr/share/matplotlib/mpl-data/fonts/afm/phvro8an.afm'
p972
aS'/usr/share/matplotlib/mpl-data/fonts/pdfcorefonts/Times-Roman.afm'
p973
aS'/usr/share/matplotlib/mpl-data/fonts/afm/putri8a.afm'
p974
aS'/usr/share/matplotlib/mpl-data/fonts/pdfcorefonts/Courier.afm'
p975
aS'/usr/share/matplotlib/mpl-data/fonts/afm/phvr8a.afm'
p976
aS'/usr/share/matplotlib/mpl-data/fonts/afm/pcrbo8a.afm'
p977
aS'/usr/share/fonts/type1/gsfonts/n021024l.afm'
p978
aS'/usr/share/fonts/type1/gsfonts/n019024l.afm'
p979
aS'/usr/share/fonts/type1/gsfonts/n021004l.afm'
p980
aS'/usr/share/fonts/type1/gsfonts/s050000l.afm'
p981
aS'/usr/share/fonts/type1/gsfonts/p052024l.afm'
p982
aS'/usr/share/fonts/type1/gsfonts/p052004l.afm'
p983
aS'/usr/share/fonts/X11/Type1/c0648bt_.afm'
p984
aS'/usr/share/fonts/type1/gsfonts/n019064l.afm'
p985
aS'/usr/share/fonts/X11/Type1/c0649bt_.afm'
p986
aS'/usr/share/fonts/type1/gsfonts/c059013l.afm'
p987
aS'/usr/share/fonts/type1/gsfonts/a010033l.afm'
p988
aS'/usr/share/fonts/type1/gsfonts/n019044l.afm'
p989
aS'/usr/share/fonts/type1/gsfonts/b018015l.afm'
p990
aS'/usr/share/fonts/type1/gsfonts/z003034l.afm'
p991
aS'/usr/share/fonts/type1/gsfonts/n022024l.afm'
p992
aS'/usr/share/fonts/type1/gsfonts/n019043l.afm'
p993
aS'/usr/share/fonts/type1/gsfonts/n019004l.afm'
p994
aS'/usr/share/fonts/X11/Type1/c0633bt_.afm'
p995
aS'/usr/share/fonts/type1/gsfonts/b018012l.afm'
p996
aS'/usr/share/fonts/type1/gsfonts/n019003l.afm'
p997
aS'/usr/share/fonts/type1/gsfonts/d050000l.afm'
p998
aS'/usr/share/fonts/type1/gsfonts/b018035l.afm'
p999
aS'/usr/share/fonts/type1/gsfonts/a010013l.afm'
p1000
aS'/usr/share/fonts/X11/Type1/c0582bt_.afm'
p1001
aS'/usr/share/fonts/type1/gsfonts/n022004l.afm'
p1002
aS'/usr/share/fonts/X11/Type1/c0583bt_.afm'
p1003
aS'/usr/share/fonts/type1/gsfonts/p052023l.afm'
p1004
aS'/usr/share/fonts/type1/mathml/Symbol.afm'
p1005
aS'/usr/share/fonts/type1/gsfonts/a010035l.afm'
p1006
aS'/usr/share/fonts/type1/gsfonts/c059033l.afm'
p1007
aS'/usr/share/fonts/type1/gsfonts/n019023l.afm'
p1008
aS'/usr/share/fonts/type1/gsfonts/n022003l.afm'
p1009
aS'/usr/share/fonts/type1/gsfonts/n019063l.afm'
p1010
aS'/usr/share/fonts/type1/gsfonts/c059036l.afm'
p1011
aS'/usr/share/fonts/X11/Type1/Symbol.afm'
p1012
aS'/usr/share/fonts/type1/gsfonts/p052003l.afm'
p1013
aS'/usr/share/fonts/type1/gsfonts/a010015l.afm'
p1014
aS'/usr/share/fonts/type1/gsfonts/b018032l.afm'
p1015
aS'/usr/share/fonts/type1/gsfonts/c059016l.afm'
p1016
aS'/usr/share/fonts/type1/gsfonts/n022023l.afm'
p1017
aS'/usr/share/fonts/type1/gsfonts/n021023l.afm'
p1018
aS'/usr/share/fonts/type1/gsfonts/n021003l.afm'
p1019
aS'/usr/share/fonts/X11/Type1/c0611bt_.afm'
p1020
aS'/usr/share/fonts/X11/Type1/c0632bt_.afm'
p1021
aS'/usr/share/fonts/X11/Type1/c0419bt_.afm'
p1022
asS'afmlist'
p1023
(lp1024
g7
(g8
g9
NtRp1025
(dp1026
g12
g29
sg14
S'ITC Avant Garde Gothic'
p1027
sg16
I400
sg17
g13
sg18
g13
sg19
g918
sg21
g22
sbag7
(g8
g9
NtRp1028
(dp1029
g12
g29
sg14
S'ITC Zapf Chancery'
p1030
sg16
I500
sg17
g13
sg18
g13
sg19
g919
sg21
g22
sbag7
(g8
g9
NtRp1031
(dp1032
g12
g13
sg14
S'Helvetica'
p1033
sg16
I200
sg17
g13
sg18
g13
sg19
g920
sg21
g22
sbag7
(g8
g9
NtRp1034
(dp1035
g12
g29
sg14
S'Utopia'
p1036
sg16
I700
sg17
g13
sg18
g13
sg19
g921
sg21
g22
sbag7
(g8
g9
NtRp1037
(dp1038
g12
g29
sg14
S'Helvetica'
p1039
sg16
I700
sg17
g13
sg18
g13
sg19
g922
sg21
g22
sbag7
(g8
g9
NtRp1040
(dp1041
g12
g13
sg14
S'Helvetica'
p1042
sg16
I700
sg17
g119
sg18
g13
sg19
g923
sg21
g22
sbag7
(g8
g9
NtRp1043
(dp1044
g12
g13
sg14
S'ITC Bookman'
p1045
sg16
I600
sg17
g13
sg18
g13
sg19
g924
sg21
g22
sbag7
(g8
g9
NtRp1046
(dp1047
g12
g29
sg14
S'New Century Schoolbook'
p1048
sg16
I500
sg17
g13
sg18
g13
sg19
g925
sg21
g22
sbag7
(g8
g9
NtRp1049
(dp1050
g12
g13
sg14
S'Helvetica'
p1051
sg16
I700
sg17
g13
sg18
g13
sg19
g926
sg21
g22
sbag7
(g8
g9
NtRp1052
(dp1053
g12
g29
sg14
S'Times'
p1054
sg16
I700
sg17
g13
sg18
g13
sg19
g927
sg21
g22
sbag7
(g8
g9
NtRp1055
(dp1056
g12
g13
sg14
S'Courier'
p1057
sg16
I700
sg17
g13
sg18
g13
sg19
g928
sg21
g22
sbag7
(g8
g9
NtRp1058
(dp1059
g12
g29
sg14
S'ITC Avant Garde Gothic'
p1060
sg16
I600
sg17
g13
sg18
g13
sg19
g929
sg21
g22
sbag7
(g8
g9
NtRp1061
(dp1062
g12
g13
sg14
S'Courier'
p1063
sg16
I500
sg17
g13
sg18
g13
sg19
g930
sg21
g22
sbag7
(g8
g9
NtRp1064
(dp1065
g12
g13
sg14
S'New Century Schoolbook'
p1066
sg16
I700
sg17
g13
sg18
g13
sg19
g931
sg21
g22
sbag7
(g8
g9
NtRp1067
(dp1068
g12
g13
sg14
S'Courier'
p1069
sg16
I700
sg17
g13
sg18
g13
sg19
g932
sg21
g22
sbag7
(g8
g9
NtRp1070
(dp1071
g12
g29
sg14
S'New Century Schoolbook'
p1072
sg16
I700
sg17
g13
sg18
g13
sg19
g933
sg21
g22
sbag7
(g8
g9
NtRp1073
(dp1074
g12
g13
sg14
S'Computer Modern'
p1075
sg16
I500
sg17
g13
sg18
g13
sg19
g934
sg21
g22
sbag7
(g8
g9
NtRp1076
(dp1077
g12
g13
sg14
S'Computer Modern'
p1078
sg16
I500
sg17
g13
sg18
g13
sg19
g935
sg21
g22
sbag7
(g8
g9
NtRp1079
(dp1080
g12
g13
sg14
S'Symbol'
p1081
sg16
I500
sg17
g13
sg18
g13
sg19
g936
sg21
g22
sbag7
(g8
g9
NtRp1082
(dp1083
g12
g13
sg14
S'Helvetica'
p1084
sg16
I500
sg17
g119
sg18
g13
sg19
g937
sg21
g22
sbag7
(g8
g9
NtRp1085
(dp1086
g12
g29
sg14
S'Helvetica'
p1087
sg16
I500
sg17
g13
sg18
g13
sg19
g938
sg21
g22
sbag7
(g8
g9
NtRp1088
(dp1089
g12
g13
sg14
S'Times'
p1090
sg16
I500
sg17
g13
sg18
g13
sg19
g939
sg21
g22
sbag7
(g8
g9
NtRp1091
(dp1092
g12
g29
sg14
S'Helvetica'
p1093
sg16
I500
sg17
g13
sg18
g13
sg19
g940
sg21
g22
sbag7
(g8
g9
NtRp1094
(dp1095
g12
g29
sg14
S'Palatino'
p1096
sg16
I700
sg17
g13
sg18
g13
sg19
g941
sg21
g22
sbag7
(g8
g9
NtRp1097
(dp1098
g12
g29
sg14
S'Computer Modern'
p1099
sg16
I500
sg17
g13
sg18
g13
sg19
g942
sg21
g22
sbag7
(g8
g9
NtRp1100
(dp1101
g12
g13
sg14
S'ITC Avant Garde Gothic'
p1102
sg16
I400
sg17
g13
sg18
g13
sg19
g943
sg21
g22
sbag7
(g8
g9
NtRp1103
(dp1104
g12
g29
sg14
S'Courier'
p1105
sg16
I700
sg17
g13
sg18
g13
sg19
g944
sg21
g22
sbag7
(g8
g9
NtRp1106
(dp1107
g12
g13
sg14
S'Utopia'
p1108
sg16
I700
sg17
g13
sg18
g13
sg19
g945
sg21
g22
sbag7
(g8
g9
NtRp1109
(dp1110
g12
g29
sg14
S'Computer Modern'
p1111
sg16
I500
sg17
g13
sg18
g13
sg19
g946
sg21
g22
sbag7
(g8
g9
NtRp1112
(dp1113
g12
g13
sg14
S'Palatino'
p1114
sg16
I700
sg17
g13
sg18
g13
sg19
g947
sg21
g22
sbag7
(g8
g9
NtRp1115
(dp1116
g12
g29
sg14
S'ITC Bookman'
p1117
sg16
I600
sg17
g13
sg18
g13
sg19
g948
sg21
g22
sbag7
(g8
g9
NtRp1118
(dp1119
g12
g29
sg14
S'Helvetica'
p1120
sg16
I700
sg17
g13
sg18
g13
sg19
g949
sg21
g22
sbag7
(g8
g9
NtRp1121
(dp1122
g12
g13
sg14
S'Computer Modern'
p1123
sg16
I500
sg17
g13
sg18
g13
sg19
g950
sg21
g22
sbag7
(g8
g9
NtRp1124
(dp1125
g12
g13
sg14
S'Times'
p1126
sg16
I700
sg17
g13
sg18
g13
sg19
g951
sg21
g22
sbag7
(g8
g9
NtRp1127
(dp1128
g12
g13
sg14
S'Times'
p1129
sg16
I700
sg17
g13
sg18
g13
sg19
g952
sg21
g22
sbag7
(g8
g9
NtRp1130
(dp1131
g12
g29
sg14
S'Helvetica'
p1132
sg16
I200
sg17
g13
sg18
g13
sg19
g953
sg21
g22
sbag7
(g8
g9
NtRp1133
(dp1134
g12
g13
sg14
S'Helvetica'
p1135
sg16
I700
sg17
g13
sg18
g13
sg19
g954
sg21
g22
sbag7
(g8
g9
NtRp1136
(dp1137
g12
g13
sg14
S'ITC Zapf Dingbats'
p1138
sg16
I500
sg17
g13
sg18
g13
sg19
g955
sg21
g22
sbag7
(g8
g9
NtRp1139
(dp1140
g12
g29
sg14
S'Times'
p1141
sg16
I500
sg17
g13
sg18
g13
sg19
g956
sg21
g22
sbag7
(g8
g9
NtRp1142
(dp1143
g12
g13
sg14
S'Palatino'
p1144
sg16
I500
sg17
g13
sg18
g13
sg19
g957
sg21
g22
sbag7
(g8
g9
NtRp1145
(dp1146
g12
g13
sg14
S'ITC Bookman'
p1147
sg16
I200
sg17
g13
sg18
g13
sg19
g958
sg21
g22
sbag7
(g8
g9
NtRp1148
(dp1149
g12
g29
sg14
S'Courier'
p1150
sg16
I500
sg17
g13
sg18
g13
sg19
g959
sg21
g22
sbag7
(g8
g9
NtRp1151
(dp1152
g12
g13
sg14
S'ZapfDingbats'
p1153
sg16
I500
sg17
g13
sg18
g13
sg19
g960
sg21
g22
sbag7
(g8
g9
NtRp1154
(dp1155
g12
g13
sg14
S'Symbol'
p1156
sg16
I500
sg17
g13
sg18
g13
sg19
g961
sg21
g22
sbag7
(g8
g9
NtRp1157
(dp1158
g12
g13
sg14
S'Helvetica'
p1159
sg16
I500
sg17
g13
sg18
g13
sg19
g962
sg21
g22
sbag7
(g8
g9
NtRp1160
(dp1161
g12
g29
sg14
S'Palatino'
p1162
sg16
I500
sg17
g13
sg18
g13
sg19
g963
sg21
g22
sbag7
(g8
g9
NtRp1163
(dp1164
g12
g29
sg14
S'Times'
p1165
sg16
I700
sg17
g13
sg18
g13
sg19
g964
sg21
g22
sbag7
(g8
g9
NtRp1166
(dp1167
g12
g29
sg14
S'ITC Bookman'
p1168
sg16
I200
sg17
g13
sg18
g13
sg19
g965
sg21
g22
sbag7
(g8
g9
NtRp1169
(dp1170
g12
g29
sg14
S'Courier'
p1171
sg16
I500
sg17
g13
sg18
g13
sg19
g966
sg21
g22
sbag7
(g8
g9
NtRp1172
(dp1173
g12
g13
sg14
S'Utopia'
p1174
sg16
I400
sg17
g13
sg18
g13
sg19
g967
sg21
g22
sbag7
(g8
g9
NtRp1175
(dp1176
g12
g13
sg14
S'ITC Avant Garde Gothic'
p1177
sg16
I600
sg17
g13
sg18
g13
sg19
g968
sg21
g22
sbag7
(g8
g9
NtRp1178
(dp1179
g12
g13
sg14
S'New Century Schoolbook'
p1180
sg16
I500
sg17
g13
sg18
g13
sg19
g969
sg21
g22
sbag7
(g8
g9
NtRp1181
(dp1182
g12
g29
sg14
S'Helvetica'
p1183
sg16
I700
sg17
g119
sg18
g13
sg19
g970
sg21
g22
sbag7
(g8
g9
NtRp1184
(dp1185
g12
g29
sg14
S'Times'
p1186
sg16
I500
sg17
g13
sg18
g13
sg19
g971
sg21
g22
sbag7
(g8
g9
NtRp1187
(dp1188
g12
g29
sg14
S'Helvetica'
p1189
sg16
I500
sg17
g119
sg18
g13
sg19
g972
sg21
g22
sbag7
(g8
g9
NtRp1190
(dp1191
g12
g13
sg14
S'Times'
p1192
sg16
I500
sg17
g13
sg18
g13
sg19
g973
sg21
g22
sbag7
(g8
g9
NtRp1193
(dp1194
g12
g29
sg14
S'Utopia'
p1195
sg16
I400
sg17
g13
sg18
g13
sg19
g974
sg21
g22
sbag7
(g8
g9
NtRp1196
(dp1197
g12
g13
sg14
S'Courier'
p1198
sg16
I500
sg17
g13
sg18
g13
sg19
g975
sg21
g22
sbag7
(g8
g9
NtRp1199
(dp1200
g12
g13
sg14
S'Helvetica'
p1201
sg16
I500
sg17
g13
sg18
g13
sg19
g976
sg21
g22
sbag7
(g8
g9
NtRp1202
(dp1203
g12
g29
sg14
S'Courier'
p1204
sg16
I700
sg17
g13
sg18
g13
sg19
g977
sg21
g22
sbag7
(g8
g9
NtRp1205
(dp1206
g12
g29
sg14
S'Nimbus Roman No9 L'
p1207
sg16
I700
sg17
g13
sg18
g13
sg19
g978
sg21
g22
sbag7
(g8
g9
NtRp1208
(dp1209
g12
g29
sg14
S'Nimbus Sans L'
p1210
sg16
I700
sg17
g13
sg18
g13
sg19
g979
sg21
g22
sbag7
(g8
g9
NtRp1211
(dp1212
g12
g13
sg14
S'Nimbus Roman No9 L'
p1213
sg16
I700
sg17
g13
sg18
g13
sg19
g980
sg21
g22
sbag7
(g8
g9
NtRp1214
(dp1215
g12
g13
sg14
S'Standard Symbols L'
p1216
sg16
I400
sg17
g13
sg18
g13
sg19
g981
sg21
g22
sbag7
(g8
g9
NtRp1217
(dp1218
g12
g29
sg14
S'URW Palladio L'
p1219
sg16
I700
sg17
g13
sg18
g13
sg19
g982
sg21
g22
sbag7
(g8
g9
NtRp1220
(dp1221
g12
g13
sg14
S'URW Palladio L'
p1222
sg16
I700
sg17
g13
sg18
g13
sg19
g983
sg21
g22
sbag7
(g8
g9
NtRp1223
(dp1224
g12
g13
sg14
S'Bitstream Charter'
p1225
sg16
I400
sg17
g13
sg18
g13
sg19
g984
sg21
g22
sbag7
(g8
g9
NtRp1226
(dp1227
g12
g29
sg14
S'Nimbus Sans L'
p1228
sg16
I700
sg17
g119
sg18
g13
sg19
g985
sg21
g22
sbag7
(g8
g9
NtRp1229
(dp1230
g12
g29
sg14
S'Bitstream Charter'
p1231
sg16
I400
sg17
g13
sg18
g13
sg19
g986
sg21
g22
sbag7
(g8
g9
NtRp1232
(dp1233
g12
g13
sg14
S'Century Schoolbook L'
p1234
sg16
I500
sg17
g13
sg18
g13
sg19
g987
sg21
g22
sbag7
(g8
g9
NtRp1235
(dp1236
g12
g29
sg14
S'URW Gothic L'
p1237
sg16
I400
sg17
g13
sg18
g13
sg19
g988
sg21
g22
sbag7
(g8
g9
NtRp1238
(dp1239
g12
g13
sg14
S'Nimbus Sans L'
p1240
sg16
I700
sg17
g119
sg18
g13
sg19
g989
sg21
g22
sbag7
(g8
g9
NtRp1241
(dp1242
g12
g13
sg14
S'URW Bookman L'
p1243
sg16
I700
sg17
g13
sg18
g13
sg19
g990
sg21
g22
sbag7
(g8
g9
NtRp1244
(dp1245
g12
g29
sg14
S'URW Chancery L'
p1246
sg16
I500
sg17
g13
sg18
g13
sg19
g991
sg21
g22
sbag7
(g8
g9
NtRp1247
(dp1248
g12
g29
sg14
S'Nimbus Mono L'
p1249
sg16
I700
sg17
g13
sg18
g13
sg19
g992
sg21
g22
sbag7
(g8
g9
NtRp1250
(dp1251
g12
g13
sg14
S'Nimbus Sans L'
p1252
sg16
I400
sg17
g119
sg18
g13
sg19
g993
sg21
g22
sbag7
(g8
g9
NtRp1253
(dp1254
g12
g13
sg14
S'Nimbus Sans L'
p1255
sg16
I700
sg17
g13
sg18
g13
sg19
g994
sg21
g22
sbag7
(g8
g9
NtRp1256
(dp1257
g12
g29
sg14
S'Bitstream Charter'
p1258
sg16
I700
sg17
g13
sg18
g13
sg19
g995
sg21
g22
sbag7
(g8
g9
NtRp1259
(dp1260
g12
g13
sg14
S'URW Bookman L'
p1261
sg16
I400
sg17
g13
sg18
g13
sg19
g996
sg21
g22
sbag7
(g8
g9
NtRp1262
(dp1263
g12
g13
sg14
S'Nimbus Sans L'
p1264
sg16
I400
sg17
g13
sg18
g13
sg19
g997
sg21
g22
sbag7
(g8
g9
NtRp1265
(dp1266
g12
g13
sg14
S'Dingbats'
p1267
sg16
I400
sg17
g13
sg18
g13
sg19
g998
sg21
g22
sbag7
(g8
g9
NtRp1268
(dp1269
g12
g29
sg14
S'URW Bookman L'
p1270
sg16
I700
sg17
g13
sg18
g13
sg19
g999
sg21
g22
sbag7
(g8
g9
NtRp1271
(dp1272
g12
g13
sg14
S'URW Gothic L'
p1273
sg16
I400
sg17
g13
sg18
g13
sg19
g1000
sg21
g22
sbag7
(g8
g9
NtRp1274
(dp1275
g12
g29
sg14
S'Courier 10 Pitch'
p1276
sg16
I400
sg17
g13
sg18
g13
sg19
g1001
sg21
g22
sbag7
(g8
g9
NtRp1277
(dp1278
g12
g13
sg14
S'Nimbus Mono L'
p1279
sg16
I700
sg17
g13
sg18
g13
sg19
g1002
sg21
g22
sbag7
(g8
g9
NtRp1280
(dp1281
g12
g13
sg14
S'Courier 10 Pitch'
p1282
sg16
I700
sg17
g13
sg18
g13
sg19
g1003
sg21
g22
sbag7
(g8
g9
NtRp1283
(dp1284
g12
g29
sg14
S'URW Palladio L'
p1285
sg16
I400
sg17
g13
sg18
g13
sg19
g1004
sg21
g22
sbag7
(g8
g9
NtRp1286
(dp1287
g12
g29
sg14
S'URW Gothic L'
p1288
sg16
I600
sg17
g13
sg18
g13
sg19
g1006
sg21
g22
sbag7
(g8
g9
NtRp1289
(dp1290
g12
g29
sg14
S'Century Schoolbook L'
p1291
sg16
I400
sg17
g13
sg18
g13
sg19
g1007
sg21
g22
sbag7
(g8
g9
NtRp1292
(dp1293
g12
g29
sg14
S'Nimbus Sans L'
p1294
sg16
I400
sg17
g13
sg18
g13
sg19
g1008
sg21
g22
sbag7
(g8
g9
NtRp1295
(dp1296
g12
g13
sg14
S'Nimbus Mono L'
p1297
sg16
I400
sg17
g13
sg18
g13
sg19
g1009
sg21
g22
sbag7
(g8
g9
NtRp1298
(dp1299
g12
g29
sg14
S'Nimbus Sans L'
p1300
sg16
I400
sg17
g119
sg18
g13
sg19
g1010
sg21
g22
sbag7
(g8
g9
NtRp1301
(dp1302
g12
g29
sg14
S'Century Schoolbook L'
p1303
sg16
I700
sg17
g13
sg18
g13
sg19
g1011
sg21
g22
sbag7
(g8
g9
NtRp1304
(dp1305
g12
g13
sg14
S'URW Palladio L'
p1306
sg16
I500
sg17
g13
sg18
g13
sg19
g1013
sg21
g22
sbag7
(g8
g9
NtRp1307
(dp1308
g12
g13
sg14
S'URW Gothic L'
p1309
sg16
I600
sg17
g13
sg18
g13
sg19
g1014
sg21
g22
sbag7
(g8
g9
NtRp1310
(dp1311
g12
g29
sg14
S'URW Bookman L'
p1312
sg16
I400
sg17
g13
sg18
g13
sg19
g1015
sg21
g22
sbag7
(g8
g9
NtRp1313
(dp1314
g12
g13
sg14
S'Century Schoolbook L'
p1315
sg16
I700
sg17
g13
sg18
g13
sg19
g1016
sg21
g22
sbag7
(g8
g9
NtRp1316
(dp1317
g12
g29
sg14
S'Nimbus Mono L'
p1318
sg16
I400
sg17
g13
sg18
g13
sg19
g1017
sg21
g22
sbag7
(g8
g9
NtRp1319
(dp1320
g12
g29
sg14
S'Nimbus Roman No9 L'
p1321
sg16
I400
sg17
g13
sg18
g13
sg19
g1018
sg21
g22
sbag7
(g8
g9
NtRp1322
(dp1323
g12
g13
sg14
S'Nimbus Roman No9 L'
p1324
sg16
I400
sg17
g13
sg18
g13
sg19
g1019
sg21
g22
sbag7
(g8
g9
NtRp1325
(dp1326
g12
g29
sg14
S'Courier 10 Pitch'
p1327
sg16
I700
sg17
g13
sg18
g13
sg19
g1020
sg21
g22
sbag7
(g8
g9
NtRp1328
(dp1329
g12
g13
sg14
S'Bitstream Charter'
p1330
sg16
I700
sg17
g13
sg18
g13
sg19
g1021
sg21
g22
sbag7
(g8
g9
NtRp1331
(dp1332
g12
g13
sg14
S'Courier 10 Pitch'
p1333
sg16
I400
sg17
g13
sg18
g13
sg19
g1022
sg21
g22
sbasb.